
bin/bge.riscv:     file format elf32-littleriscv


Disassembly of section .text:

00000000 <mytest>:
   0:	00000537          	lui	a0,0x0
   4:	00050513          	mv	a0,a0
   8:	10000637          	lui	a2,0x10000

0000000c <.prname_next>:
   c:	00050583          	lb	a1,0(a0) # 0 <mytest>
  10:	00058c63          	beqz	a1,28 <.prname_done>
  14:	00b62023          	sw	a1,0(a2) # 10000000 <pass+0xffffc7c>
  18:	00150513          	addi	a0,a0,1
  1c:	ff1ff06f          	j	c <.prname_next>

00000020 <.test_name>:
  20:	796d                	lui	s2,0xffffb
  22:	6574                	flw	fa3,76(a0)
  24:	00007473          	csrrci	s0,ustatus,0

00000028 <.prname_done>:
  28:	02e00593          	li	a1,46
  2c:	00b62023          	sw	a1,0(a2)
  30:	00b62023          	sw	a1,0(a2)

00000034 <test_2>:
  34:	00200e13          	li	t3,2
  38:	00000093          	li	ra,0
  3c:	00000113          	li	sp,0
  40:	0020d663          	ble	sp,ra,4c <.L21>
  44:	31c01863          	bne	zero,t3,354 <fail>

00000048 <.L11>:
  48:	01c01663          	bne	zero,t3,54 <test_3>

0000004c <.L21>:
  4c:	fe20dee3          	ble	sp,ra,48 <.L11>
  50:	31c01263          	bne	zero,t3,354 <fail>

00000054 <test_3>:
  54:	00300e13          	li	t3,3
  58:	00100093          	li	ra,1
  5c:	00100113          	li	sp,1
  60:	0020d663          	ble	sp,ra,6c <.L22>
  64:	2fc01863          	bne	zero,t3,354 <fail>

00000068 <.L12>:
  68:	01c01663          	bne	zero,t3,74 <test_4>

0000006c <.L22>:
  6c:	fe20dee3          	ble	sp,ra,68 <.L12>
  70:	2fc01263          	bne	zero,t3,354 <fail>

00000074 <test_4>:
  74:	00400e13          	li	t3,4
  78:	fff00093          	li	ra,-1
  7c:	fff00113          	li	sp,-1
  80:	0020d663          	ble	sp,ra,8c <.L23>
  84:	2dc01863          	bne	zero,t3,354 <fail>

00000088 <.L13>:
  88:	01c01663          	bne	zero,t3,94 <test_5>

0000008c <.L23>:
  8c:	fe20dee3          	ble	sp,ra,88 <.L13>
  90:	2dc01263          	bne	zero,t3,354 <fail>

00000094 <test_5>:
  94:	00500e13          	li	t3,5
  98:	00100093          	li	ra,1
  9c:	00000113          	li	sp,0
  a0:	0020d663          	ble	sp,ra,ac <.L24>
  a4:	2bc01863          	bne	zero,t3,354 <fail>

000000a8 <.L14>:
  a8:	01c01663          	bne	zero,t3,b4 <test_6>

000000ac <.L24>:
  ac:	fe20dee3          	ble	sp,ra,a8 <.L14>
  b0:	2bc01263          	bne	zero,t3,354 <fail>

000000b4 <test_6>:
  b4:	00600e13          	li	t3,6
  b8:	00100093          	li	ra,1
  bc:	fff00113          	li	sp,-1
  c0:	0020d663          	ble	sp,ra,cc <.L25>
  c4:	29c01863          	bne	zero,t3,354 <fail>

000000c8 <.L15>:
  c8:	01c01663          	bne	zero,t3,d4 <test_7>

000000cc <.L25>:
  cc:	fe20dee3          	ble	sp,ra,c8 <.L15>
  d0:	29c01263          	bne	zero,t3,354 <fail>

000000d4 <test_7>:
  d4:	00700e13          	li	t3,7
  d8:	fff00093          	li	ra,-1
  dc:	ffe00113          	li	sp,-2
  e0:	0020d663          	ble	sp,ra,ec <.L26>
  e4:	27c01863          	bne	zero,t3,354 <fail>

000000e8 <.L16>:
  e8:	01c01663          	bne	zero,t3,f4 <test_8>

000000ec <.L26>:
  ec:	fe20dee3          	ble	sp,ra,e8 <.L16>
  f0:	27c01263          	bne	zero,t3,354 <fail>

000000f4 <test_8>:
  f4:	00800e13          	li	t3,8
  f8:	00000093          	li	ra,0
  fc:	00100113          	li	sp,1
 100:	0020d463          	ble	sp,ra,108 <.L17>
 104:	01c01463          	bne	zero,t3,10c <.L27>

00000108 <.L17>:
 108:	25c01663          	bne	zero,t3,354 <fail>

0000010c <.L27>:
 10c:	fe20dee3          	ble	sp,ra,108 <.L17>

00000110 <test_9>:
 110:	00900e13          	li	t3,9
 114:	fff00093          	li	ra,-1
 118:	00100113          	li	sp,1
 11c:	0020d463          	ble	sp,ra,124 <.L18>
 120:	01c01463          	bne	zero,t3,128 <.L28>

00000124 <.L18>:
 124:	23c01863          	bne	zero,t3,354 <fail>

00000128 <.L28>:
 128:	fe20dee3          	ble	sp,ra,124 <.L18>

0000012c <test_10>:
 12c:	00a00e13          	li	t3,10
 130:	ffe00093          	li	ra,-2
 134:	fff00113          	li	sp,-1
 138:	0020d463          	ble	sp,ra,140 <.L19>
 13c:	01c01463          	bne	zero,t3,144 <.L29>

00000140 <.L19>:
 140:	21c01a63          	bne	zero,t3,354 <fail>

00000144 <.L29>:
 144:	fe20dee3          	ble	sp,ra,140 <.L19>

00000148 <test_11>:
 148:	00b00e13          	li	t3,11
 14c:	ffe00093          	li	ra,-2
 150:	00100113          	li	sp,1
 154:	0020d463          	ble	sp,ra,15c <.L110>
 158:	01c01463          	bne	zero,t3,160 <.L210>

0000015c <.L110>:
 15c:	1fc01c63          	bne	zero,t3,354 <fail>

00000160 <.L210>:
 160:	fe20dee3          	ble	sp,ra,15c <.L110>

00000164 <test_12>:
 164:	00c00e13          	li	t3,12
 168:	00000213          	li	tp,0

0000016c <.L111>:
 16c:	fff00093          	li	ra,-1
 170:	00000113          	li	sp,0
 174:	1e20d063          	ble	sp,ra,354 <fail>
 178:	00120213          	addi	tp,tp,1 # 1 <mytest+0x1>
 17c:	00200293          	li	t0,2
 180:	fe5216e3          	bne	tp,t0,16c <.L111>

00000184 <test_13>:
 184:	00d00e13          	li	t3,13
 188:	00000213          	li	tp,0

0000018c <.L112>:
 18c:	fff00093          	li	ra,-1
 190:	00000113          	li	sp,0
 194:	00000013          	nop
 198:	1a20de63          	ble	sp,ra,354 <fail>
 19c:	00120213          	addi	tp,tp,1 # 1 <mytest+0x1>
 1a0:	00200293          	li	t0,2
 1a4:	fe5214e3          	bne	tp,t0,18c <.L112>

000001a8 <test_14>:
 1a8:	00e00e13          	li	t3,14
 1ac:	00000213          	li	tp,0

000001b0 <.L113>:
 1b0:	fff00093          	li	ra,-1
 1b4:	00000113          	li	sp,0
 1b8:	00000013          	nop
 1bc:	00000013          	nop
 1c0:	1820da63          	ble	sp,ra,354 <fail>
 1c4:	00120213          	addi	tp,tp,1 # 1 <mytest+0x1>
 1c8:	00200293          	li	t0,2
 1cc:	fe5212e3          	bne	tp,t0,1b0 <.L113>

000001d0 <test_15>:
 1d0:	00f00e13          	li	t3,15
 1d4:	00000213          	li	tp,0

000001d8 <.L114>:
 1d8:	fff00093          	li	ra,-1
 1dc:	00000013          	nop
 1e0:	00000113          	li	sp,0
 1e4:	1620d863          	ble	sp,ra,354 <fail>
 1e8:	00120213          	addi	tp,tp,1 # 1 <mytest+0x1>
 1ec:	00200293          	li	t0,2
 1f0:	fe5214e3          	bne	tp,t0,1d8 <.L114>

000001f4 <test_16>:
 1f4:	01000e13          	li	t3,16
 1f8:	00000213          	li	tp,0

000001fc <.L115>:
 1fc:	fff00093          	li	ra,-1
 200:	00000013          	nop
 204:	00000113          	li	sp,0
 208:	00000013          	nop
 20c:	1420d463          	ble	sp,ra,354 <fail>
 210:	00120213          	addi	tp,tp,1 # 1 <mytest+0x1>
 214:	00200293          	li	t0,2
 218:	fe5212e3          	bne	tp,t0,1fc <.L115>

0000021c <test_17>:
 21c:	01100e13          	li	t3,17
 220:	00000213          	li	tp,0

00000224 <.L116>:
 224:	fff00093          	li	ra,-1
 228:	00000013          	nop
 22c:	00000013          	nop
 230:	00000113          	li	sp,0
 234:	1220d063          	ble	sp,ra,354 <fail>
 238:	00120213          	addi	tp,tp,1 # 1 <mytest+0x1>
 23c:	00200293          	li	t0,2
 240:	fe5212e3          	bne	tp,t0,224 <.L116>

00000244 <test_18>:
 244:	01200e13          	li	t3,18
 248:	00000213          	li	tp,0

0000024c <.L117>:
 24c:	fff00093          	li	ra,-1
 250:	00000113          	li	sp,0
 254:	1020d063          	ble	sp,ra,354 <fail>
 258:	00120213          	addi	tp,tp,1 # 1 <mytest+0x1>
 25c:	00200293          	li	t0,2
 260:	fe5216e3          	bne	tp,t0,24c <.L117>

00000264 <test_19>:
 264:	01300e13          	li	t3,19
 268:	00000213          	li	tp,0

0000026c <.L118>:
 26c:	fff00093          	li	ra,-1
 270:	00000113          	li	sp,0
 274:	00000013          	nop
 278:	0c20de63          	ble	sp,ra,354 <fail>
 27c:	00120213          	addi	tp,tp,1 # 1 <mytest+0x1>
 280:	00200293          	li	t0,2
 284:	fe5214e3          	bne	tp,t0,26c <.L118>

00000288 <test_20>:
 288:	01400e13          	li	t3,20
 28c:	00000213          	li	tp,0

00000290 <.L119>:
 290:	fff00093          	li	ra,-1
 294:	00000113          	li	sp,0
 298:	00000013          	nop
 29c:	00000013          	nop
 2a0:	0a20da63          	ble	sp,ra,354 <fail>
 2a4:	00120213          	addi	tp,tp,1 # 1 <mytest+0x1>
 2a8:	00200293          	li	t0,2
 2ac:	fe5212e3          	bne	tp,t0,290 <.L119>

000002b0 <test_21>:
 2b0:	01500e13          	li	t3,21
 2b4:	00000213          	li	tp,0

000002b8 <.L120>:
 2b8:	fff00093          	li	ra,-1
 2bc:	00000013          	nop
 2c0:	00000113          	li	sp,0
 2c4:	0820d863          	ble	sp,ra,354 <fail>
 2c8:	00120213          	addi	tp,tp,1 # 1 <mytest+0x1>
 2cc:	00200293          	li	t0,2
 2d0:	fe5214e3          	bne	tp,t0,2b8 <.L120>

000002d4 <test_22>:
 2d4:	01600e13          	li	t3,22
 2d8:	00000213          	li	tp,0

000002dc <.L121>:
 2dc:	fff00093          	li	ra,-1
 2e0:	00000013          	nop
 2e4:	00000113          	li	sp,0
 2e8:	00000013          	nop
 2ec:	0620d463          	ble	sp,ra,354 <fail>
 2f0:	00120213          	addi	tp,tp,1 # 1 <mytest+0x1>
 2f4:	00200293          	li	t0,2
 2f8:	fe5212e3          	bne	tp,t0,2dc <.L121>

000002fc <test_23>:
 2fc:	01700e13          	li	t3,23
 300:	00000213          	li	tp,0

00000304 <.L122>:
 304:	fff00093          	li	ra,-1
 308:	00000013          	nop
 30c:	00000013          	nop
 310:	00000113          	li	sp,0
 314:	0420d063          	ble	sp,ra,354 <fail>
 318:	00120213          	addi	tp,tp,1 # 1 <mytest+0x1>
 31c:	00200293          	li	t0,2
 320:	fe5212e3          	bne	tp,t0,304 <.L122>

00000324 <test_24>:
 324:	00100093          	li	ra,1
 328:	0000da63          	bgez	ra,33c <.L123>
 32c:	00108093          	addi	ra,ra,1
 330:	00108093          	addi	ra,ra,1
 334:	00108093          	addi	ra,ra,1
 338:	00108093          	addi	ra,ra,1

0000033c <.L123>:
 33c:	00108093          	addi	ra,ra,1
 340:	00108093          	addi	ra,ra,1
 344:	00300e93          	li	t4,3
 348:	01800e13          	li	t3,24
 34c:	01d09463          	bne	ra,t4,354 <fail>
 350:	03c01a63          	bne	zero,t3,384 <pass>

00000354 <fail>:
 354:	10000537          	lui	a0,0x10000
 358:	04500593          	li	a1,69
 35c:	05200613          	li	a2,82
 360:	04f00693          	li	a3,79
 364:	00a00713          	li	a4,10
 368:	00b52023          	sw	a1,0(a0) # 10000000 <pass+0xffffc7c>
 36c:	00c52023          	sw	a2,0(a0)
 370:	00c52023          	sw	a2,0(a0)
 374:	00d52023          	sw	a3,0(a0)
 378:	00c52023          	sw	a2,0(a0)
 37c:	00e52023          	sw	a4,0(a0)
 380:	00100073          	ebreak

00000384 <pass>:
 384:	10000537          	lui	a0,0x10000
 388:	04f00593          	li	a1,79
 38c:	04b00613          	li	a2,75
 390:	00a00693          	li	a3,10
 394:	00b52023          	sw	a1,0(a0) # 10000000 <pass+0xffffc7c>
 398:	00c52023          	sw	a2,0(a0)
 39c:	00d52023          	sw	a3,0(a0)
 3a0:	c61ff06f          	j	0 <mytest>
