
bin/sll.riscv:     file format elf32-littleriscv


Disassembly of section .text:

00000000 <mytest>:
   0:	00000537          	lui	a0,0x0
   4:	00050513          	mv	a0,a0
   8:	10000637          	lui	a2,0x10000

0000000c <.prname_next>:
   c:	00050583          	lb	a1,0(a0) # 0 <mytest>
  10:	00058c63          	beqz	a1,28 <.prname_done>
  14:	00b62023          	sw	a1,0(a2) # 10000000 <pass+0xffffa30>
  18:	00150513          	addi	a0,a0,1
  1c:	ff1ff06f          	j	c <.prname_next>

00000020 <.test_name>:
  20:	796d                	lui	s2,0xffffb
  22:	6574                	flw	fa3,76(a0)
  24:	00007473          	csrrci	s0,ustatus,0

00000028 <.prname_done>:
  28:	02e00593          	li	a1,46
  2c:	00b62023          	sw	a1,0(a2)
  30:	00b62023          	sw	a1,0(a2)

00000034 <test_2>:
  34:	00100093          	li	ra,1
  38:	00000113          	li	sp,0
  3c:	002091b3          	sll	gp,ra,sp
  40:	00100e93          	li	t4,1
  44:	00200e13          	li	t3,2
  48:	55d19c63          	bne	gp,t4,5a0 <fail>

0000004c <test_3>:
  4c:	00100093          	li	ra,1
  50:	00100113          	li	sp,1
  54:	002091b3          	sll	gp,ra,sp
  58:	00200e93          	li	t4,2
  5c:	00300e13          	li	t3,3
  60:	55d19063          	bne	gp,t4,5a0 <fail>

00000064 <test_4>:
  64:	00100093          	li	ra,1
  68:	00700113          	li	sp,7
  6c:	002091b3          	sll	gp,ra,sp
  70:	08000e93          	li	t4,128
  74:	00400e13          	li	t3,4
  78:	53d19463          	bne	gp,t4,5a0 <fail>

0000007c <test_5>:
  7c:	00100093          	li	ra,1
  80:	00e00113          	li	sp,14
  84:	002091b3          	sll	gp,ra,sp
  88:	00004eb7          	lui	t4,0x4
  8c:	00500e13          	li	t3,5
  90:	51d19863          	bne	gp,t4,5a0 <fail>

00000094 <test_6>:
  94:	00100093          	li	ra,1
  98:	01f00113          	li	sp,31
  9c:	002091b3          	sll	gp,ra,sp
  a0:	80000eb7          	lui	t4,0x80000
  a4:	00600e13          	li	t3,6
  a8:	4fd19c63          	bne	gp,t4,5a0 <fail>

000000ac <test_7>:
  ac:	fff00093          	li	ra,-1
  b0:	00000113          	li	sp,0
  b4:	002091b3          	sll	gp,ra,sp
  b8:	fff00e93          	li	t4,-1
  bc:	00700e13          	li	t3,7
  c0:	4fd19063          	bne	gp,t4,5a0 <fail>

000000c4 <test_8>:
  c4:	fff00093          	li	ra,-1
  c8:	00100113          	li	sp,1
  cc:	002091b3          	sll	gp,ra,sp
  d0:	ffe00e93          	li	t4,-2
  d4:	00800e13          	li	t3,8
  d8:	4dd19463          	bne	gp,t4,5a0 <fail>

000000dc <test_9>:
  dc:	fff00093          	li	ra,-1
  e0:	00700113          	li	sp,7
  e4:	002091b3          	sll	gp,ra,sp
  e8:	f8000e93          	li	t4,-128
  ec:	00900e13          	li	t3,9
  f0:	4bd19863          	bne	gp,t4,5a0 <fail>

000000f4 <test_10>:
  f4:	fff00093          	li	ra,-1
  f8:	00e00113          	li	sp,14
  fc:	002091b3          	sll	gp,ra,sp
 100:	ffffceb7          	lui	t4,0xffffc
 104:	00a00e13          	li	t3,10
 108:	49d19c63          	bne	gp,t4,5a0 <fail>

0000010c <test_11>:
 10c:	fff00093          	li	ra,-1
 110:	01f00113          	li	sp,31
 114:	002091b3          	sll	gp,ra,sp
 118:	80000eb7          	lui	t4,0x80000
 11c:	00b00e13          	li	t3,11
 120:	49d19063          	bne	gp,t4,5a0 <fail>

00000124 <test_12>:
 124:	212120b7          	lui	ra,0x21212
 128:	12108093          	addi	ra,ra,289 # 21212121 <pass+0x21211b51>
 12c:	00000113          	li	sp,0
 130:	002091b3          	sll	gp,ra,sp
 134:	21212eb7          	lui	t4,0x21212
 138:	121e8e93          	addi	t4,t4,289 # 21212121 <pass+0x21211b51>
 13c:	00c00e13          	li	t3,12
 140:	47d19063          	bne	gp,t4,5a0 <fail>

00000144 <test_13>:
 144:	212120b7          	lui	ra,0x21212
 148:	12108093          	addi	ra,ra,289 # 21212121 <pass+0x21211b51>
 14c:	00100113          	li	sp,1
 150:	002091b3          	sll	gp,ra,sp
 154:	42424eb7          	lui	t4,0x42424
 158:	242e8e93          	addi	t4,t4,578 # 42424242 <pass+0x42423c72>
 15c:	00d00e13          	li	t3,13
 160:	45d19063          	bne	gp,t4,5a0 <fail>

00000164 <test_14>:
 164:	212120b7          	lui	ra,0x21212
 168:	12108093          	addi	ra,ra,289 # 21212121 <pass+0x21211b51>
 16c:	00700113          	li	sp,7
 170:	002091b3          	sll	gp,ra,sp
 174:	90909eb7          	lui	t4,0x90909
 178:	080e8e93          	addi	t4,t4,128 # 90909080 <pass+0x90908ab0>
 17c:	00e00e13          	li	t3,14
 180:	43d19063          	bne	gp,t4,5a0 <fail>

00000184 <test_15>:
 184:	212120b7          	lui	ra,0x21212
 188:	12108093          	addi	ra,ra,289 # 21212121 <pass+0x21211b51>
 18c:	00e00113          	li	sp,14
 190:	002091b3          	sll	gp,ra,sp
 194:	48484eb7          	lui	t4,0x48484
 198:	00f00e13          	li	t3,15
 19c:	41d19263          	bne	gp,t4,5a0 <fail>

000001a0 <test_16>:
 1a0:	212120b7          	lui	ra,0x21212
 1a4:	12108093          	addi	ra,ra,289 # 21212121 <pass+0x21211b51>
 1a8:	01f00113          	li	sp,31
 1ac:	002091b3          	sll	gp,ra,sp
 1b0:	80000eb7          	lui	t4,0x80000
 1b4:	01000e13          	li	t3,16
 1b8:	3fd19463          	bne	gp,t4,5a0 <fail>

000001bc <test_17>:
 1bc:	212120b7          	lui	ra,0x21212
 1c0:	12108093          	addi	ra,ra,289 # 21212121 <pass+0x21211b51>
 1c4:	fe000113          	li	sp,-32
 1c8:	002091b3          	sll	gp,ra,sp
 1cc:	21212eb7          	lui	t4,0x21212
 1d0:	121e8e93          	addi	t4,t4,289 # 21212121 <pass+0x21211b51>
 1d4:	01100e13          	li	t3,17
 1d8:	3dd19463          	bne	gp,t4,5a0 <fail>

000001dc <test_18>:
 1dc:	212120b7          	lui	ra,0x21212
 1e0:	12108093          	addi	ra,ra,289 # 21212121 <pass+0x21211b51>
 1e4:	fe100113          	li	sp,-31
 1e8:	002091b3          	sll	gp,ra,sp
 1ec:	42424eb7          	lui	t4,0x42424
 1f0:	242e8e93          	addi	t4,t4,578 # 42424242 <pass+0x42423c72>
 1f4:	01200e13          	li	t3,18
 1f8:	3bd19463          	bne	gp,t4,5a0 <fail>

000001fc <test_19>:
 1fc:	212120b7          	lui	ra,0x21212
 200:	12108093          	addi	ra,ra,289 # 21212121 <pass+0x21211b51>
 204:	fe700113          	li	sp,-25
 208:	002091b3          	sll	gp,ra,sp
 20c:	90909eb7          	lui	t4,0x90909
 210:	080e8e93          	addi	t4,t4,128 # 90909080 <pass+0x90908ab0>
 214:	01300e13          	li	t3,19
 218:	39d19463          	bne	gp,t4,5a0 <fail>

0000021c <test_20>:
 21c:	212120b7          	lui	ra,0x21212
 220:	12108093          	addi	ra,ra,289 # 21212121 <pass+0x21211b51>
 224:	fee00113          	li	sp,-18
 228:	002091b3          	sll	gp,ra,sp
 22c:	48484eb7          	lui	t4,0x48484
 230:	01400e13          	li	t3,20
 234:	37d19663          	bne	gp,t4,5a0 <fail>

00000238 <test_21>:
 238:	212120b7          	lui	ra,0x21212
 23c:	12008093          	addi	ra,ra,288 # 21212120 <pass+0x21211b50>
 240:	fff00113          	li	sp,-1
 244:	002091b3          	sll	gp,ra,sp
 248:	00000e93          	li	t4,0
 24c:	01500e13          	li	t3,21
 250:	35d19863          	bne	gp,t4,5a0 <fail>

00000254 <test_22>:
 254:	00100093          	li	ra,1
 258:	00700113          	li	sp,7
 25c:	002090b3          	sll	ra,ra,sp
 260:	08000e93          	li	t4,128
 264:	01600e13          	li	t3,22
 268:	33d09c63          	bne	ra,t4,5a0 <fail>

0000026c <test_23>:
 26c:	00100093          	li	ra,1
 270:	00e00113          	li	sp,14
 274:	00209133          	sll	sp,ra,sp
 278:	00004eb7          	lui	t4,0x4
 27c:	01700e13          	li	t3,23
 280:	33d11063          	bne	sp,t4,5a0 <fail>

00000284 <test_24>:
 284:	00300093          	li	ra,3
 288:	001090b3          	sll	ra,ra,ra
 28c:	01800e93          	li	t4,24
 290:	01800e13          	li	t3,24
 294:	31d09663          	bne	ra,t4,5a0 <fail>

00000298 <test_25>:
 298:	00000213          	li	tp,0

0000029c <.L11>:
 29c:	00100093          	li	ra,1
 2a0:	00700113          	li	sp,7
 2a4:	002091b3          	sll	gp,ra,sp
 2a8:	00018313          	mv	t1,gp
 2ac:	00120213          	addi	tp,tp,1 # 1 <mytest+0x1>
 2b0:	00200293          	li	t0,2
 2b4:	fe5214e3          	bne	tp,t0,29c <.L11>
 2b8:	08000e93          	li	t4,128
 2bc:	01900e13          	li	t3,25
 2c0:	2fd31063          	bne	t1,t4,5a0 <fail>

000002c4 <test_26>:
 2c4:	00000213          	li	tp,0

000002c8 <.L12>:
 2c8:	00100093          	li	ra,1
 2cc:	00e00113          	li	sp,14
 2d0:	002091b3          	sll	gp,ra,sp
 2d4:	00000013          	nop
 2d8:	00018313          	mv	t1,gp
 2dc:	00120213          	addi	tp,tp,1 # 1 <mytest+0x1>
 2e0:	00200293          	li	t0,2
 2e4:	fe5212e3          	bne	tp,t0,2c8 <.L12>
 2e8:	00004eb7          	lui	t4,0x4
 2ec:	01a00e13          	li	t3,26
 2f0:	2bd31863          	bne	t1,t4,5a0 <fail>

000002f4 <test_27>:
 2f4:	00000213          	li	tp,0

000002f8 <.L13>:
 2f8:	00100093          	li	ra,1
 2fc:	01f00113          	li	sp,31
 300:	002091b3          	sll	gp,ra,sp
 304:	00000013          	nop
 308:	00000013          	nop
 30c:	00018313          	mv	t1,gp
 310:	00120213          	addi	tp,tp,1 # 1 <mytest+0x1>
 314:	00200293          	li	t0,2
 318:	fe5210e3          	bne	tp,t0,2f8 <.L13>
 31c:	80000eb7          	lui	t4,0x80000
 320:	01b00e13          	li	t3,27
 324:	27d31e63          	bne	t1,t4,5a0 <fail>

00000328 <test_28>:
 328:	00000213          	li	tp,0

0000032c <.L14>:
 32c:	00100093          	li	ra,1
 330:	00700113          	li	sp,7
 334:	002091b3          	sll	gp,ra,sp
 338:	00120213          	addi	tp,tp,1 # 1 <mytest+0x1>
 33c:	00200293          	li	t0,2
 340:	fe5216e3          	bne	tp,t0,32c <.L14>
 344:	08000e93          	li	t4,128
 348:	01c00e13          	li	t3,28
 34c:	25d19a63          	bne	gp,t4,5a0 <fail>

00000350 <test_29>:
 350:	00000213          	li	tp,0

00000354 <.L15>:
 354:	00100093          	li	ra,1
 358:	00e00113          	li	sp,14
 35c:	00000013          	nop
 360:	002091b3          	sll	gp,ra,sp
 364:	00120213          	addi	tp,tp,1 # 1 <mytest+0x1>
 368:	00200293          	li	t0,2
 36c:	fe5214e3          	bne	tp,t0,354 <.L15>
 370:	00004eb7          	lui	t4,0x4
 374:	01d00e13          	li	t3,29
 378:	23d19463          	bne	gp,t4,5a0 <fail>

0000037c <test_30>:
 37c:	00000213          	li	tp,0

00000380 <.L16>:
 380:	00100093          	li	ra,1
 384:	01f00113          	li	sp,31
 388:	00000013          	nop
 38c:	00000013          	nop
 390:	002091b3          	sll	gp,ra,sp
 394:	00120213          	addi	tp,tp,1 # 1 <mytest+0x1>
 398:	00200293          	li	t0,2
 39c:	fe5212e3          	bne	tp,t0,380 <.L16>
 3a0:	80000eb7          	lui	t4,0x80000
 3a4:	01e00e13          	li	t3,30
 3a8:	1fd19c63          	bne	gp,t4,5a0 <fail>

000003ac <test_31>:
 3ac:	00000213          	li	tp,0

000003b0 <.L17>:
 3b0:	00100093          	li	ra,1
 3b4:	00000013          	nop
 3b8:	00700113          	li	sp,7
 3bc:	002091b3          	sll	gp,ra,sp
 3c0:	00120213          	addi	tp,tp,1 # 1 <mytest+0x1>
 3c4:	00200293          	li	t0,2
 3c8:	fe5214e3          	bne	tp,t0,3b0 <.L17>
 3cc:	08000e93          	li	t4,128
 3d0:	01f00e13          	li	t3,31
 3d4:	1dd19663          	bne	gp,t4,5a0 <fail>

000003d8 <test_32>:
 3d8:	00000213          	li	tp,0

000003dc <.L18>:
 3dc:	00100093          	li	ra,1
 3e0:	00000013          	nop
 3e4:	00e00113          	li	sp,14
 3e8:	00000013          	nop
 3ec:	002091b3          	sll	gp,ra,sp
 3f0:	00120213          	addi	tp,tp,1 # 1 <mytest+0x1>
 3f4:	00200293          	li	t0,2
 3f8:	fe5212e3          	bne	tp,t0,3dc <.L18>
 3fc:	00004eb7          	lui	t4,0x4
 400:	02000e13          	li	t3,32
 404:	19d19e63          	bne	gp,t4,5a0 <fail>

00000408 <test_33>:
 408:	00000213          	li	tp,0

0000040c <.L19>:
 40c:	00100093          	li	ra,1
 410:	00000013          	nop
 414:	00000013          	nop
 418:	01f00113          	li	sp,31
 41c:	002091b3          	sll	gp,ra,sp
 420:	00120213          	addi	tp,tp,1 # 1 <mytest+0x1>
 424:	00200293          	li	t0,2
 428:	fe5212e3          	bne	tp,t0,40c <.L19>
 42c:	80000eb7          	lui	t4,0x80000
 430:	02100e13          	li	t3,33
 434:	17d19663          	bne	gp,t4,5a0 <fail>

00000438 <test_34>:
 438:	00000213          	li	tp,0

0000043c <.L110>:
 43c:	00700113          	li	sp,7
 440:	00100093          	li	ra,1
 444:	002091b3          	sll	gp,ra,sp
 448:	00120213          	addi	tp,tp,1 # 1 <mytest+0x1>
 44c:	00200293          	li	t0,2
 450:	fe5216e3          	bne	tp,t0,43c <.L110>
 454:	08000e93          	li	t4,128
 458:	02200e13          	li	t3,34
 45c:	15d19263          	bne	gp,t4,5a0 <fail>

00000460 <test_35>:
 460:	00000213          	li	tp,0

00000464 <.L111>:
 464:	00e00113          	li	sp,14
 468:	00100093          	li	ra,1
 46c:	00000013          	nop
 470:	002091b3          	sll	gp,ra,sp
 474:	00120213          	addi	tp,tp,1 # 1 <mytest+0x1>
 478:	00200293          	li	t0,2
 47c:	fe5214e3          	bne	tp,t0,464 <.L111>
 480:	00004eb7          	lui	t4,0x4
 484:	02300e13          	li	t3,35
 488:	11d19c63          	bne	gp,t4,5a0 <fail>

0000048c <test_36>:
 48c:	00000213          	li	tp,0

00000490 <.L112>:
 490:	01f00113          	li	sp,31
 494:	00100093          	li	ra,1
 498:	00000013          	nop
 49c:	00000013          	nop
 4a0:	002091b3          	sll	gp,ra,sp
 4a4:	00120213          	addi	tp,tp,1 # 1 <mytest+0x1>
 4a8:	00200293          	li	t0,2
 4ac:	fe5212e3          	bne	tp,t0,490 <.L112>
 4b0:	80000eb7          	lui	t4,0x80000
 4b4:	02400e13          	li	t3,36
 4b8:	0fd19463          	bne	gp,t4,5a0 <fail>

000004bc <test_37>:
 4bc:	00000213          	li	tp,0

000004c0 <.L113>:
 4c0:	00700113          	li	sp,7
 4c4:	00000013          	nop
 4c8:	00100093          	li	ra,1
 4cc:	002091b3          	sll	gp,ra,sp
 4d0:	00120213          	addi	tp,tp,1 # 1 <mytest+0x1>
 4d4:	00200293          	li	t0,2
 4d8:	fe5214e3          	bne	tp,t0,4c0 <.L113>
 4dc:	08000e93          	li	t4,128
 4e0:	02500e13          	li	t3,37
 4e4:	0bd19e63          	bne	gp,t4,5a0 <fail>

000004e8 <test_38>:
 4e8:	00000213          	li	tp,0

000004ec <.L114>:
 4ec:	00e00113          	li	sp,14
 4f0:	00000013          	nop
 4f4:	00100093          	li	ra,1
 4f8:	00000013          	nop
 4fc:	002091b3          	sll	gp,ra,sp
 500:	00120213          	addi	tp,tp,1 # 1 <mytest+0x1>
 504:	00200293          	li	t0,2
 508:	fe5212e3          	bne	tp,t0,4ec <.L114>
 50c:	00004eb7          	lui	t4,0x4
 510:	02600e13          	li	t3,38
 514:	09d19663          	bne	gp,t4,5a0 <fail>

00000518 <test_39>:
 518:	00000213          	li	tp,0

0000051c <.L115>:
 51c:	01f00113          	li	sp,31
 520:	00000013          	nop
 524:	00000013          	nop
 528:	00100093          	li	ra,1
 52c:	002091b3          	sll	gp,ra,sp
 530:	00120213          	addi	tp,tp,1 # 1 <mytest+0x1>
 534:	00200293          	li	t0,2
 538:	fe5212e3          	bne	tp,t0,51c <.L115>
 53c:	80000eb7          	lui	t4,0x80000
 540:	02700e13          	li	t3,39
 544:	05d19e63          	bne	gp,t4,5a0 <fail>

00000548 <test_40>:
 548:	00f00093          	li	ra,15
 54c:	00101133          	sll	sp,zero,ra
 550:	00000e93          	li	t4,0
 554:	02800e13          	li	t3,40
 558:	05d11463          	bne	sp,t4,5a0 <fail>

0000055c <test_41>:
 55c:	02000093          	li	ra,32
 560:	00009133          	sll	sp,ra,zero
 564:	02000e93          	li	t4,32
 568:	02900e13          	li	t3,41
 56c:	03d11a63          	bne	sp,t4,5a0 <fail>

00000570 <test_42>:
 570:	000010b3          	sll	ra,zero,zero
 574:	00000e93          	li	t4,0
 578:	02a00e13          	li	t3,42
 57c:	03d09263          	bne	ra,t4,5a0 <fail>

00000580 <test_43>:
 580:	40000093          	li	ra,1024
 584:	00001137          	lui	sp,0x1
 588:	80010113          	addi	sp,sp,-2048 # 800 <pass+0x230>
 58c:	00209033          	sll	zero,ra,sp
 590:	00000e93          	li	t4,0
 594:	02b00e13          	li	t3,43
 598:	01d01463          	bne	zero,t4,5a0 <fail>
 59c:	03c01a63          	bne	zero,t3,5d0 <pass>

000005a0 <fail>:
 5a0:	10000537          	lui	a0,0x10000
 5a4:	04500593          	li	a1,69
 5a8:	05200613          	li	a2,82
 5ac:	04f00693          	li	a3,79
 5b0:	00a00713          	li	a4,10
 5b4:	00b52023          	sw	a1,0(a0) # 10000000 <pass+0xffffa30>
 5b8:	00c52023          	sw	a2,0(a0)
 5bc:	00c52023          	sw	a2,0(a0)
 5c0:	00d52023          	sw	a3,0(a0)
 5c4:	00c52023          	sw	a2,0(a0)
 5c8:	00e52023          	sw	a4,0(a0)
 5cc:	00100073          	ebreak

000005d0 <pass>:
 5d0:	10000537          	lui	a0,0x10000
 5d4:	04f00593          	li	a1,79
 5d8:	04b00613          	li	a2,75
 5dc:	00a00693          	li	a3,10
 5e0:	00b52023          	sw	a1,0(a0) # 10000000 <pass+0xffffa30>
 5e4:	00c52023          	sw	a2,0(a0)
 5e8:	00d52023          	sw	a3,0(a0)
 5ec:	a15ff06f          	j	0 <mytest>
