
rv32ui-p-andi:     file format elf32-littleriscv


Disassembly of section .text:

00000000 <mytest>:
   0:	00000537          	lui	a0,0x0
   4:	02050513          	addi	a0,a0,32 # 20 <.test_name>
   8:	10000637          	lui	a2,0x10000

0000000c <.prname_next>:
   c:	00050583          	lb	a1,0(a0)
  10:	00058c63          	beqz	a1,28 <.prname_done>
  14:	00b62023          	sw	a1,0(a2) # 10000000 <_end+0xffff000>
  18:	00150513          	addi	a0,a0,1
  1c:	ff1ff06f          	j	c <.prname_next>

00000020 <.test_name>:
  20:	796d                	lui	s2,0xffffb
  22:	6574                	flw	fa3,76(a0)
  24:	00007473          	csrrci	s0,ustatus,0

00000028 <.prname_done>:
  28:	02e00593          	li	a1,46
  2c:	00b62023          	sw	a1,0(a2)
  30:	00b62023          	sw	a1,0(a2)

00000034 <test_2>:
  34:	ff0100b7          	lui	ra,0xff010
  38:	f0008093          	addi	ra,ra,-256 # ff00ff00 <_end+0xff00ef00>
  3c:	f0f0ff13          	andi	t5,ra,-241
  40:	ff010eb7          	lui	t4,0xff010
  44:	f00e8e93          	addi	t4,t4,-256 # ff00ff00 <_end+0xff00ef00>
  48:	00200e13          	li	t3,2
  4c:	1bdf1463          	bne	t5,t4,1f4 <fail>

00000050 <test_3>:
  50:	0ff010b7          	lui	ra,0xff01
  54:	ff008093          	addi	ra,ra,-16 # ff00ff0 <_end+0xfeffff0>
  58:	0f00ff13          	andi	t5,ra,240
  5c:	0f000e93          	li	t4,240
  60:	00300e13          	li	t3,3
  64:	19df1863          	bne	t5,t4,1f4 <fail>

00000068 <test_4>:
  68:	00ff00b7          	lui	ra,0xff0
  6c:	0ff08093          	addi	ra,ra,255 # ff00ff <_end+0xfef0ff>
  70:	70f0ff13          	andi	t5,ra,1807
  74:	00f00e93          	li	t4,15
  78:	00400e13          	li	t3,4
  7c:	17df1c63          	bne	t5,t4,1f4 <fail>

00000080 <test_5>:
  80:	f00ff0b7          	lui	ra,0xf00ff
  84:	00f08093          	addi	ra,ra,15 # f00ff00f <_end+0xf00fe00f>
  88:	0f00ff13          	andi	t5,ra,240
  8c:	00000e93          	li	t4,0
  90:	00500e13          	li	t3,5
  94:	17df1063          	bne	t5,t4,1f4 <fail>

00000098 <test_6>:
  98:	ff0100b7          	lui	ra,0xff010
  9c:	f0008093          	addi	ra,ra,-256 # ff00ff00 <_end+0xff00ef00>
  a0:	0f00f093          	andi	ra,ra,240
  a4:	00000e93          	li	t4,0
  a8:	00600e13          	li	t3,6
  ac:	15d09463          	bne	ra,t4,1f4 <fail>

000000b0 <test_7>:
  b0:	00000213          	li	tp,0
  b4:	0ff010b7          	lui	ra,0xff01
  b8:	ff008093          	addi	ra,ra,-16 # ff00ff0 <_end+0xfeffff0>
  bc:	70f0ff13          	andi	t5,ra,1807
  c0:	000f0313          	mv	t1,t5
  c4:	00120213          	addi	tp,tp,1 # 1 <mytest+0x1>
  c8:	00200293          	li	t0,2
  cc:	fe5214e3          	bne	tp,t0,b4 <test_7+0x4>
  d0:	70000e93          	li	t4,1792
  d4:	00700e13          	li	t3,7
  d8:	11d31e63          	bne	t1,t4,1f4 <fail>

000000dc <test_8>:
  dc:	00000213          	li	tp,0
  e0:	00ff00b7          	lui	ra,0xff0
  e4:	0ff08093          	addi	ra,ra,255 # ff00ff <_end+0xfef0ff>
  e8:	0f00ff13          	andi	t5,ra,240
  ec:	00000013          	nop
  f0:	000f0313          	mv	t1,t5
  f4:	00120213          	addi	tp,tp,1 # 1 <mytest+0x1>
  f8:	00200293          	li	t0,2
  fc:	fe5212e3          	bne	tp,t0,e0 <test_8+0x4>
 100:	0f000e93          	li	t4,240
 104:	00800e13          	li	t3,8
 108:	0fd31663          	bne	t1,t4,1f4 <fail>

0000010c <test_9>:
 10c:	00000213          	li	tp,0
 110:	f00ff0b7          	lui	ra,0xf00ff
 114:	00f08093          	addi	ra,ra,15 # f00ff00f <_end+0xf00fe00f>
 118:	f0f0ff13          	andi	t5,ra,-241
 11c:	00000013          	nop
 120:	00000013          	nop
 124:	000f0313          	mv	t1,t5
 128:	00120213          	addi	tp,tp,1 # 1 <mytest+0x1>
 12c:	00200293          	li	t0,2
 130:	fe5210e3          	bne	tp,t0,110 <test_9+0x4>
 134:	f00ffeb7          	lui	t4,0xf00ff
 138:	00fe8e93          	addi	t4,t4,15 # f00ff00f <_end+0xf00fe00f>
 13c:	00900e13          	li	t3,9
 140:	0bd31a63          	bne	t1,t4,1f4 <fail>

00000144 <test_10>:
 144:	00000213          	li	tp,0
 148:	0ff010b7          	lui	ra,0xff01
 14c:	ff008093          	addi	ra,ra,-16 # ff00ff0 <_end+0xfeffff0>
 150:	70f0ff13          	andi	t5,ra,1807
 154:	00120213          	addi	tp,tp,1 # 1 <mytest+0x1>
 158:	00200293          	li	t0,2
 15c:	fe5216e3          	bne	tp,t0,148 <test_10+0x4>
 160:	70000e93          	li	t4,1792
 164:	00a00e13          	li	t3,10
 168:	09df1663          	bne	t5,t4,1f4 <fail>

0000016c <test_11>:
 16c:	00000213          	li	tp,0
 170:	00ff00b7          	lui	ra,0xff0
 174:	0ff08093          	addi	ra,ra,255 # ff00ff <_end+0xfef0ff>
 178:	00000013          	nop
 17c:	0f00ff13          	andi	t5,ra,240
 180:	00120213          	addi	tp,tp,1 # 1 <mytest+0x1>
 184:	00200293          	li	t0,2
 188:	fe5214e3          	bne	tp,t0,170 <test_11+0x4>
 18c:	0f000e93          	li	t4,240
 190:	00b00e13          	li	t3,11
 194:	07df1063          	bne	t5,t4,1f4 <fail>

00000198 <test_12>:
 198:	00000213          	li	tp,0
 19c:	f00ff0b7          	lui	ra,0xf00ff
 1a0:	00f08093          	addi	ra,ra,15 # f00ff00f <_end+0xf00fe00f>
 1a4:	00000013          	nop
 1a8:	00000013          	nop
 1ac:	70f0ff13          	andi	t5,ra,1807
 1b0:	00120213          	addi	tp,tp,1 # 1 <mytest+0x1>
 1b4:	00200293          	li	t0,2
 1b8:	fe5212e3          	bne	tp,t0,19c <test_12+0x4>
 1bc:	00f00e93          	li	t4,15
 1c0:	00c00e13          	li	t3,12
 1c4:	03df1863          	bne	t5,t4,1f4 <fail>

000001c8 <test_13>:
 1c8:	0f007093          	andi	ra,zero,240
 1cc:	00000e93          	li	t4,0
 1d0:	00d00e13          	li	t3,13
 1d4:	03d09063          	bne	ra,t4,1f4 <fail>

000001d8 <test_14>:
 1d8:	00ff00b7          	lui	ra,0xff0
 1dc:	0ff08093          	addi	ra,ra,255 # ff00ff <_end+0xfef0ff>
 1e0:	70f0f013          	andi	zero,ra,1807
 1e4:	00000e93          	li	t4,0
 1e8:	00e00e13          	li	t3,14
 1ec:	01d01463          	bne	zero,t4,1f4 <fail>
 1f0:	03c01a63          	bne	zero,t3,224 <pass>

000001f4 <fail>:
 1f4:	10000537          	lui	a0,0x10000
 1f8:	04500593          	li	a1,69
 1fc:	05200613          	li	a2,82
 200:	04f00693          	li	a3,79
 204:	00a00713          	li	a4,10
 208:	00b52023          	sw	a1,0(a0) # 10000000 <_end+0xffff000>
 20c:	00c52023          	sw	a2,0(a0)
 210:	00c52023          	sw	a2,0(a0)
 214:	00d52023          	sw	a3,0(a0)
 218:	00c52023          	sw	a2,0(a0)
 21c:	00e52023          	sw	a4,0(a0)
 220:	00100073          	ebreak

00000224 <pass>:
 224:	10000537          	lui	a0,0x10000
 228:	04f00593          	li	a1,79
 22c:	04b00613          	li	a2,75
 230:	00a00693          	li	a3,10
 234:	00b52023          	sw	a1,0(a0) # 10000000 <_end+0xffff000>
 238:	00c52023          	sw	a2,0(a0)
 23c:	00d52023          	sw	a3,0(a0)

00000240 <.halt>:
 240:	0000006f          	j	240 <.halt>
