
rv32ui-p-lui:     file format elf32-littleriscv


Disassembly of section .text:

00000000 <mytest>:
   0:	00000537          	lui	a0,0x0
   4:	02050513          	addi	a0,a0,32 # 20 <.test_name>
   8:	10000637          	lui	a2,0x10000

0000000c <.prname_next>:
   c:	00050583          	lb	a1,0(a0)
  10:	00058c63          	beqz	a1,28 <.prname_done>
  14:	00b62023          	sw	a1,0(a2) # 10000000 <_end+0xffff000>
  18:	00150513          	addi	a0,a0,1
  1c:	ff1ff06f          	j	c <.prname_next>

00000020 <.test_name>:
  20:	796d                	lui	s2,0xffffb
  22:	6574                	flw	fa3,76(a0)
  24:	00007473          	csrrci	s0,ustatus,0

00000028 <.prname_done>:
  28:	02e00593          	li	a1,46
  2c:	00b62023          	sw	a1,0(a2)
  30:	00b62023          	sw	a1,0(a2)

00000034 <test_2>:
  34:	000000b7          	lui	ra,0x0
  38:	00000e93          	li	t4,0
  3c:	00200e13          	li	t3,2
  40:	05d09a63          	bne	ra,t4,94 <fail>

00000044 <test_3>:
  44:	fffff0b7          	lui	ra,0xfffff
  48:	4010d093          	srai	ra,ra,0x1
  4c:	80000e93          	li	t4,-2048
  50:	00300e13          	li	t3,3
  54:	05d09063          	bne	ra,t4,94 <fail>

00000058 <test_4>:
  58:	7ffff0b7          	lui	ra,0x7ffff
  5c:	4140d093          	srai	ra,ra,0x14
  60:	7ff00e93          	li	t4,2047
  64:	00400e13          	li	t3,4
  68:	03d09663          	bne	ra,t4,94 <fail>

0000006c <test_5>:
  6c:	800000b7          	lui	ra,0x80000
  70:	4140d093          	srai	ra,ra,0x14
  74:	80000e93          	li	t4,-2048
  78:	00500e13          	li	t3,5
  7c:	01d09c63          	bne	ra,t4,94 <fail>

00000080 <test_6>:
  80:	80000037          	lui	zero,0x80000
  84:	00000e93          	li	t4,0
  88:	00600e13          	li	t3,6
  8c:	01d01463          	bne	zero,t4,94 <fail>
  90:	03c01a63          	bne	zero,t3,c4 <pass>

00000094 <fail>:
  94:	10000537          	lui	a0,0x10000
  98:	04500593          	li	a1,69
  9c:	05200613          	li	a2,82
  a0:	04f00693          	li	a3,79
  a4:	00a00713          	li	a4,10
  a8:	00b52023          	sw	a1,0(a0) # 10000000 <_end+0xffff000>
  ac:	00c52023          	sw	a2,0(a0)
  b0:	00c52023          	sw	a2,0(a0)
  b4:	00d52023          	sw	a3,0(a0)
  b8:	00c52023          	sw	a2,0(a0)
  bc:	00e52023          	sw	a4,0(a0)
  c0:	00100073          	ebreak

000000c4 <pass>:
  c4:	10000537          	lui	a0,0x10000
  c8:	04f00593          	li	a1,79
  cc:	04b00613          	li	a2,75
  d0:	00a00693          	li	a3,10
  d4:	00b52023          	sw	a1,0(a0) # 10000000 <_end+0xffff000>
  d8:	00c52023          	sw	a2,0(a0)
  dc:	00d52023          	sw	a3,0(a0)

000000e0 <.halt>:
  e0:	0000006f          	j	e0 <.halt>
