
rv32ui-p-sw:     file format elf32-littleriscv


Disassembly of section .text:

00000000 <mytest>:
   0:	00000537          	lui	a0,0x0
   4:	02050513          	addi	a0,a0,32 # 20 <.test_name>
   8:	10000637          	lui	a2,0x10000

0000000c <.prname_next>:
   c:	00050583          	lb	a1,0(a0)
  10:	00058c63          	beqz	a1,28 <.prname_done>
  14:	00b62023          	sw	a1,0(a2) # 10000000 <_end+0xfffefd8>
  18:	00150513          	addi	a0,a0,1
  1c:	ff1ff06f          	j	c <.prname_next>

00000020 <.test_name>:
  20:	796d                	lui	s2,0xffffb
  22:	6574                	flw	fa3,76(a0)
  24:	00007473          	csrrci	s0,ustatus,0

00000028 <.prname_done>:
  28:	02e00593          	li	a1,46
  2c:	00b62023          	sw	a1,0(a2)
  30:	00b62023          	sw	a1,0(a2)

00000034 <test_2>:
  34:	00001097          	auipc	ra,0x1
  38:	fcc08093          	addi	ra,ra,-52 # 1000 <tdat>
  3c:	00aa0137          	lui	sp,0xaa0
  40:	0aa10113          	addi	sp,sp,170 # aa00aa <_end+0xa9f082>
  44:	0020a023          	sw	sp,0(ra)
  48:	0000af03          	lw	t5,0(ra)
  4c:	00aa0eb7          	lui	t4,0xaa0
  50:	0aae8e93          	addi	t4,t4,170 # aa00aa <_end+0xa9f082>
  54:	00200e13          	li	t3,2
  58:	47df1063          	bne	t5,t4,4b8 <fail>

0000005c <test_3>:
  5c:	00001097          	auipc	ra,0x1
  60:	fa408093          	addi	ra,ra,-92 # 1000 <tdat>
  64:	aa00b137          	lui	sp,0xaa00b
  68:	a0010113          	addi	sp,sp,-1536 # aa00aa00 <_end+0xaa0099d8>
  6c:	0020a223          	sw	sp,4(ra)
  70:	0040af03          	lw	t5,4(ra)
  74:	aa00beb7          	lui	t4,0xaa00b
  78:	a00e8e93          	addi	t4,t4,-1536 # aa00aa00 <_end+0xaa0099d8>
  7c:	00300e13          	li	t3,3
  80:	43df1c63          	bne	t5,t4,4b8 <fail>

00000084 <test_4>:
  84:	00001097          	auipc	ra,0x1
  88:	f7c08093          	addi	ra,ra,-132 # 1000 <tdat>
  8c:	0aa01137          	lui	sp,0xaa01
  90:	aa010113          	addi	sp,sp,-1376 # aa00aa0 <_end+0xa9ffa78>
  94:	0020a423          	sw	sp,8(ra)
  98:	0080af03          	lw	t5,8(ra)
  9c:	0aa01eb7          	lui	t4,0xaa01
  a0:	aa0e8e93          	addi	t4,t4,-1376 # aa00aa0 <_end+0xa9ffa78>
  a4:	00400e13          	li	t3,4
  a8:	41df1863          	bne	t5,t4,4b8 <fail>

000000ac <test_5>:
  ac:	00001097          	auipc	ra,0x1
  b0:	f5408093          	addi	ra,ra,-172 # 1000 <tdat>
  b4:	a00aa137          	lui	sp,0xa00aa
  b8:	00a10113          	addi	sp,sp,10 # a00aa00a <_end+0xa00a8fe2>
  bc:	0020a623          	sw	sp,12(ra)
  c0:	00c0af03          	lw	t5,12(ra)
  c4:	a00aaeb7          	lui	t4,0xa00aa
  c8:	00ae8e93          	addi	t4,t4,10 # a00aa00a <_end+0xa00a8fe2>
  cc:	00500e13          	li	t3,5
  d0:	3fdf1463          	bne	t5,t4,4b8 <fail>

000000d4 <test_6>:
  d4:	00001097          	auipc	ra,0x1
  d8:	f4808093          	addi	ra,ra,-184 # 101c <tdat8>
  dc:	00aa0137          	lui	sp,0xaa0
  e0:	0aa10113          	addi	sp,sp,170 # aa00aa <_end+0xa9f082>
  e4:	fe20aa23          	sw	sp,-12(ra)
  e8:	ff40af03          	lw	t5,-12(ra)
  ec:	00aa0eb7          	lui	t4,0xaa0
  f0:	0aae8e93          	addi	t4,t4,170 # aa00aa <_end+0xa9f082>
  f4:	00600e13          	li	t3,6
  f8:	3ddf1063          	bne	t5,t4,4b8 <fail>

000000fc <test_7>:
  fc:	00001097          	auipc	ra,0x1
 100:	f2008093          	addi	ra,ra,-224 # 101c <tdat8>
 104:	aa00b137          	lui	sp,0xaa00b
 108:	a0010113          	addi	sp,sp,-1536 # aa00aa00 <_end+0xaa0099d8>
 10c:	fe20ac23          	sw	sp,-8(ra)
 110:	ff80af03          	lw	t5,-8(ra)
 114:	aa00beb7          	lui	t4,0xaa00b
 118:	a00e8e93          	addi	t4,t4,-1536 # aa00aa00 <_end+0xaa0099d8>
 11c:	00700e13          	li	t3,7
 120:	39df1c63          	bne	t5,t4,4b8 <fail>

00000124 <test_8>:
 124:	00001097          	auipc	ra,0x1
 128:	ef808093          	addi	ra,ra,-264 # 101c <tdat8>
 12c:	0aa01137          	lui	sp,0xaa01
 130:	aa010113          	addi	sp,sp,-1376 # aa00aa0 <_end+0xa9ffa78>
 134:	fe20ae23          	sw	sp,-4(ra)
 138:	ffc0af03          	lw	t5,-4(ra)
 13c:	0aa01eb7          	lui	t4,0xaa01
 140:	aa0e8e93          	addi	t4,t4,-1376 # aa00aa0 <_end+0xa9ffa78>
 144:	00800e13          	li	t3,8
 148:	37df1863          	bne	t5,t4,4b8 <fail>

0000014c <test_9>:
 14c:	00001097          	auipc	ra,0x1
 150:	ed008093          	addi	ra,ra,-304 # 101c <tdat8>
 154:	a00aa137          	lui	sp,0xa00aa
 158:	00a10113          	addi	sp,sp,10 # a00aa00a <_end+0xa00a8fe2>
 15c:	0020a023          	sw	sp,0(ra)
 160:	0000af03          	lw	t5,0(ra)
 164:	a00aaeb7          	lui	t4,0xa00aa
 168:	00ae8e93          	addi	t4,t4,10 # a00aa00a <_end+0xa00a8fe2>
 16c:	00900e13          	li	t3,9
 170:	35df1463          	bne	t5,t4,4b8 <fail>

00000174 <test_10>:
 174:	00001097          	auipc	ra,0x1
 178:	eac08093          	addi	ra,ra,-340 # 1020 <tdat9>
 17c:	12345137          	lui	sp,0x12345
 180:	67810113          	addi	sp,sp,1656 # 12345678 <_end+0x12344650>
 184:	fe008213          	addi	tp,ra,-32
 188:	02222023          	sw	sp,32(tp) # 20 <.test_name>
 18c:	0000a283          	lw	t0,0(ra)
 190:	12345eb7          	lui	t4,0x12345
 194:	678e8e93          	addi	t4,t4,1656 # 12345678 <_end+0x12344650>
 198:	00a00e13          	li	t3,10
 19c:	31d29e63          	bne	t0,t4,4b8 <fail>

000001a0 <test_11>:
 1a0:	00001097          	auipc	ra,0x1
 1a4:	e8008093          	addi	ra,ra,-384 # 1020 <tdat9>
 1a8:	58213137          	lui	sp,0x58213
 1ac:	09810113          	addi	sp,sp,152 # 58213098 <_end+0x58212070>
 1b0:	ffd08093          	addi	ra,ra,-3
 1b4:	0020a3a3          	sw	sp,7(ra)
 1b8:	00001217          	auipc	tp,0x1
 1bc:	e6c20213          	addi	tp,tp,-404 # 1024 <tdat10>
 1c0:	00022283          	lw	t0,0(tp) # 0 <mytest>
 1c4:	58213eb7          	lui	t4,0x58213
 1c8:	098e8e93          	addi	t4,t4,152 # 58213098 <_end+0x58212070>
 1cc:	00b00e13          	li	t3,11
 1d0:	2fd29463          	bne	t0,t4,4b8 <fail>

000001d4 <test_12>:
 1d4:	00c00e13          	li	t3,12
 1d8:	00000213          	li	tp,0
 1dc:	aabbd0b7          	lui	ra,0xaabbd
 1e0:	cdd08093          	addi	ra,ra,-803 # aabbccdd <_end+0xaabbbcb5>
 1e4:	00001117          	auipc	sp,0x1
 1e8:	e1c10113          	addi	sp,sp,-484 # 1000 <tdat>
 1ec:	00112023          	sw	ra,0(sp)
 1f0:	00012f03          	lw	t5,0(sp)
 1f4:	aabbdeb7          	lui	t4,0xaabbd
 1f8:	cdde8e93          	addi	t4,t4,-803 # aabbccdd <_end+0xaabbbcb5>
 1fc:	2bdf1e63          	bne	t5,t4,4b8 <fail>
 200:	00120213          	addi	tp,tp,1 # 1 <mytest+0x1>
 204:	00200293          	li	t0,2
 208:	fc521ae3          	bne	tp,t0,1dc <test_12+0x8>

0000020c <test_13>:
 20c:	00d00e13          	li	t3,13
 210:	00000213          	li	tp,0
 214:	daabc0b7          	lui	ra,0xdaabc
 218:	ccd08093          	addi	ra,ra,-819 # daabbccd <_end+0xdaabaca5>
 21c:	00001117          	auipc	sp,0x1
 220:	de410113          	addi	sp,sp,-540 # 1000 <tdat>
 224:	00000013          	nop
 228:	00112223          	sw	ra,4(sp)
 22c:	00412f03          	lw	t5,4(sp)
 230:	daabceb7          	lui	t4,0xdaabc
 234:	ccde8e93          	addi	t4,t4,-819 # daabbccd <_end+0xdaabaca5>
 238:	29df1063          	bne	t5,t4,4b8 <fail>
 23c:	00120213          	addi	tp,tp,1 # 1 <mytest+0x1>
 240:	00200293          	li	t0,2
 244:	fc5218e3          	bne	tp,t0,214 <test_13+0x8>

00000248 <test_14>:
 248:	00e00e13          	li	t3,14
 24c:	00000213          	li	tp,0
 250:	ddaac0b7          	lui	ra,0xddaac
 254:	bcc08093          	addi	ra,ra,-1076 # ddaabbcc <_end+0xddaaaba4>
 258:	00001117          	auipc	sp,0x1
 25c:	da810113          	addi	sp,sp,-600 # 1000 <tdat>
 260:	00000013          	nop
 264:	00000013          	nop
 268:	00112423          	sw	ra,8(sp)
 26c:	00812f03          	lw	t5,8(sp)
 270:	ddaaceb7          	lui	t4,0xddaac
 274:	bcce8e93          	addi	t4,t4,-1076 # ddaabbcc <_end+0xddaaaba4>
 278:	25df1063          	bne	t5,t4,4b8 <fail>
 27c:	00120213          	addi	tp,tp,1 # 1 <mytest+0x1>
 280:	00200293          	li	t0,2
 284:	fc5216e3          	bne	tp,t0,250 <test_14+0x8>

00000288 <test_15>:
 288:	00f00e13          	li	t3,15
 28c:	00000213          	li	tp,0
 290:	cddab0b7          	lui	ra,0xcddab
 294:	bbc08093          	addi	ra,ra,-1092 # cddaabbc <_end+0xcdda9b94>
 298:	00000013          	nop
 29c:	00001117          	auipc	sp,0x1
 2a0:	d6410113          	addi	sp,sp,-668 # 1000 <tdat>
 2a4:	00112623          	sw	ra,12(sp)
 2a8:	00c12f03          	lw	t5,12(sp)
 2ac:	cddabeb7          	lui	t4,0xcddab
 2b0:	bbce8e93          	addi	t4,t4,-1092 # cddaabbc <_end+0xcdda9b94>
 2b4:	21df1263          	bne	t5,t4,4b8 <fail>
 2b8:	00120213          	addi	tp,tp,1 # 1 <mytest+0x1>
 2bc:	00200293          	li	t0,2
 2c0:	fc5218e3          	bne	tp,t0,290 <test_15+0x8>

000002c4 <test_16>:
 2c4:	01000e13          	li	t3,16
 2c8:	00000213          	li	tp,0
 2cc:	ccddb0b7          	lui	ra,0xccddb
 2d0:	abb08093          	addi	ra,ra,-1349 # ccddaabb <_end+0xccdd9a93>
 2d4:	00000013          	nop
 2d8:	00001117          	auipc	sp,0x1
 2dc:	d2810113          	addi	sp,sp,-728 # 1000 <tdat>
 2e0:	00000013          	nop
 2e4:	00112823          	sw	ra,16(sp)
 2e8:	01012f03          	lw	t5,16(sp)
 2ec:	ccddbeb7          	lui	t4,0xccddb
 2f0:	abbe8e93          	addi	t4,t4,-1349 # ccddaabb <_end+0xccdd9a93>
 2f4:	1ddf1263          	bne	t5,t4,4b8 <fail>
 2f8:	00120213          	addi	tp,tp,1 # 1 <mytest+0x1>
 2fc:	00200293          	li	t0,2
 300:	fc5216e3          	bne	tp,t0,2cc <test_16+0x8>

00000304 <test_17>:
 304:	01100e13          	li	t3,17
 308:	00000213          	li	tp,0
 30c:	bccde0b7          	lui	ra,0xbccde
 310:	aab08093          	addi	ra,ra,-1365 # bccddaab <_end+0xbccdca83>
 314:	00000013          	nop
 318:	00000013          	nop
 31c:	00001117          	auipc	sp,0x1
 320:	ce410113          	addi	sp,sp,-796 # 1000 <tdat>
 324:	00112a23          	sw	ra,20(sp)
 328:	01412f03          	lw	t5,20(sp)
 32c:	bccdeeb7          	lui	t4,0xbccde
 330:	aabe8e93          	addi	t4,t4,-1365 # bccddaab <_end+0xbccdca83>
 334:	19df1263          	bne	t5,t4,4b8 <fail>
 338:	00120213          	addi	tp,tp,1 # 1 <mytest+0x1>
 33c:	00200293          	li	t0,2
 340:	fc5216e3          	bne	tp,t0,30c <test_17+0x8>

00000344 <test_18>:
 344:	01200e13          	li	t3,18
 348:	00000213          	li	tp,0
 34c:	00001117          	auipc	sp,0x1
 350:	cb410113          	addi	sp,sp,-844 # 1000 <tdat>
 354:	001120b7          	lui	ra,0x112
 358:	23308093          	addi	ra,ra,563 # 112233 <_end+0x11120b>
 35c:	00112023          	sw	ra,0(sp)
 360:	00012f03          	lw	t5,0(sp)
 364:	00112eb7          	lui	t4,0x112
 368:	233e8e93          	addi	t4,t4,563 # 112233 <_end+0x11120b>
 36c:	15df1663          	bne	t5,t4,4b8 <fail>
 370:	00120213          	addi	tp,tp,1 # 1 <mytest+0x1>
 374:	00200293          	li	t0,2
 378:	fc521ae3          	bne	tp,t0,34c <test_18+0x8>

0000037c <test_19>:
 37c:	01300e13          	li	t3,19
 380:	00000213          	li	tp,0
 384:	00001117          	auipc	sp,0x1
 388:	c7c10113          	addi	sp,sp,-900 # 1000 <tdat>
 38c:	300110b7          	lui	ra,0x30011
 390:	22308093          	addi	ra,ra,547 # 30011223 <_end+0x300101fb>
 394:	00000013          	nop
 398:	00112223          	sw	ra,4(sp)
 39c:	00412f03          	lw	t5,4(sp)
 3a0:	30011eb7          	lui	t4,0x30011
 3a4:	223e8e93          	addi	t4,t4,547 # 30011223 <_end+0x300101fb>
 3a8:	11df1863          	bne	t5,t4,4b8 <fail>
 3ac:	00120213          	addi	tp,tp,1 # 1 <mytest+0x1>
 3b0:	00200293          	li	t0,2
 3b4:	fc5218e3          	bne	tp,t0,384 <test_19+0x8>

000003b8 <test_20>:
 3b8:	01400e13          	li	t3,20
 3bc:	00000213          	li	tp,0
 3c0:	00001117          	auipc	sp,0x1
 3c4:	c4010113          	addi	sp,sp,-960 # 1000 <tdat>
 3c8:	330010b7          	lui	ra,0x33001
 3cc:	12208093          	addi	ra,ra,290 # 33001122 <_end+0x330000fa>
 3d0:	00000013          	nop
 3d4:	00000013          	nop
 3d8:	00112423          	sw	ra,8(sp)
 3dc:	00812f03          	lw	t5,8(sp)
 3e0:	33001eb7          	lui	t4,0x33001
 3e4:	122e8e93          	addi	t4,t4,290 # 33001122 <_end+0x330000fa>
 3e8:	0ddf1863          	bne	t5,t4,4b8 <fail>
 3ec:	00120213          	addi	tp,tp,1 # 1 <mytest+0x1>
 3f0:	00200293          	li	t0,2
 3f4:	fc5216e3          	bne	tp,t0,3c0 <test_20+0x8>

000003f8 <test_21>:
 3f8:	01500e13          	li	t3,21
 3fc:	00000213          	li	tp,0
 400:	00001117          	auipc	sp,0x1
 404:	c0010113          	addi	sp,sp,-1024 # 1000 <tdat>
 408:	00000013          	nop
 40c:	233000b7          	lui	ra,0x23300
 410:	11208093          	addi	ra,ra,274 # 23300112 <_end+0x232ff0ea>
 414:	00112623          	sw	ra,12(sp)
 418:	00c12f03          	lw	t5,12(sp)
 41c:	23300eb7          	lui	t4,0x23300
 420:	112e8e93          	addi	t4,t4,274 # 23300112 <_end+0x232ff0ea>
 424:	09df1a63          	bne	t5,t4,4b8 <fail>
 428:	00120213          	addi	tp,tp,1 # 1 <mytest+0x1>
 42c:	00200293          	li	t0,2
 430:	fc5218e3          	bne	tp,t0,400 <test_21+0x8>

00000434 <test_22>:
 434:	01600e13          	li	t3,22
 438:	00000213          	li	tp,0
 43c:	00001117          	auipc	sp,0x1
 440:	bc410113          	addi	sp,sp,-1084 # 1000 <tdat>
 444:	00000013          	nop
 448:	223300b7          	lui	ra,0x22330
 44c:	01108093          	addi	ra,ra,17 # 22330011 <_end+0x2232efe9>
 450:	00000013          	nop
 454:	00112823          	sw	ra,16(sp)
 458:	01012f03          	lw	t5,16(sp)
 45c:	22330eb7          	lui	t4,0x22330
 460:	011e8e93          	addi	t4,t4,17 # 22330011 <_end+0x2232efe9>
 464:	05df1a63          	bne	t5,t4,4b8 <fail>
 468:	00120213          	addi	tp,tp,1 # 1 <mytest+0x1>
 46c:	00200293          	li	t0,2
 470:	fc5216e3          	bne	tp,t0,43c <test_22+0x8>

00000474 <test_23>:
 474:	01700e13          	li	t3,23
 478:	00000213          	li	tp,0
 47c:	00001117          	auipc	sp,0x1
 480:	b8410113          	addi	sp,sp,-1148 # 1000 <tdat>
 484:	00000013          	nop
 488:	00000013          	nop
 48c:	122330b7          	lui	ra,0x12233
 490:	00108093          	addi	ra,ra,1 # 12233001 <_end+0x12231fd9>
 494:	00112a23          	sw	ra,20(sp)
 498:	01412f03          	lw	t5,20(sp)
 49c:	12233eb7          	lui	t4,0x12233
 4a0:	001e8e93          	addi	t4,t4,1 # 12233001 <_end+0x12231fd9>
 4a4:	01df1a63          	bne	t5,t4,4b8 <fail>
 4a8:	00120213          	addi	tp,tp,1 # 1 <mytest+0x1>
 4ac:	00200293          	li	t0,2
 4b0:	fc5216e3          	bne	tp,t0,47c <test_23+0x8>
 4b4:	03c01a63          	bne	zero,t3,4e8 <pass>

000004b8 <fail>:
 4b8:	10000537          	lui	a0,0x10000
 4bc:	04500593          	li	a1,69
 4c0:	05200613          	li	a2,82
 4c4:	04f00693          	li	a3,79
 4c8:	00a00713          	li	a4,10
 4cc:	00b52023          	sw	a1,0(a0) # 10000000 <_end+0xfffefd8>
 4d0:	00c52023          	sw	a2,0(a0)
 4d4:	00c52023          	sw	a2,0(a0)
 4d8:	00d52023          	sw	a3,0(a0)
 4dc:	00c52023          	sw	a2,0(a0)
 4e0:	00e52023          	sw	a4,0(a0)
 4e4:	00100073          	ebreak

000004e8 <pass>:
 4e8:	10000537          	lui	a0,0x10000
 4ec:	04f00593          	li	a1,79
 4f0:	04b00613          	li	a2,75
 4f4:	00a00693          	li	a3,10
 4f8:	00b52023          	sw	a1,0(a0) # 10000000 <_end+0xfffefd8>
 4fc:	00c52023          	sw	a2,0(a0)
 500:	00d52023          	sw	a3,0(a0)

00000504 <.halt>:
 504:	0000006f          	j	504 <.halt>
